target datalayout = "e-m:e-p270:32:32-p271:32:32-p272:64:64-i64:64-i128:128-f80:128-n8:16:32:64-S128"
target triple = "x86_64-pc-linux-gnu"

%"class.tinyxml2::StrPair" = type { i32, ptr, ptr }
%"class.tinyxml2::XMLNode" = type { ptr, ptr, ptr, %"class.tinyxml2::StrPair", i32, ptr, ptr, ptr, ptr, ptr, ptr }
%"class.tinyxml2::XMLPrinter" = type { %"class.tinyxml2::XMLVisitor", i8, %"class.tinyxml2::DynArray.7", i8, ptr, i32, i32, i8, i8, [64 x i8], [64 x i8], [6 x i8], %"class.tinyxml2::DynArray.8" }
%"class.tinyxml2::XMLVisitor" = type { ptr }
%"class.tinyxml2::DynArray.7" = type { ptr, [10 x ptr], i32, i32 }
%"class.tinyxml2::DynArray.8" = type <{ ptr, [20 x i8], i32, i32, [4 x i8] }>

@.str.17 = private unnamed_addr constant [3 x i8] c"<?\00", align 1
@.str.26 = private unnamed_addr constant [3 x i8] c"?>\00", align 1

; Function Attrs: mustprogress uwtable
define void @_ZN8tinyxml210XMLPrinter23SealElementIfJustOpenedEv(ptr noundef nonnull align 8 dereferenceable(312) %0) #2 align 2 {
  %2 = alloca ptr, align 8
  store ptr %0, ptr %2, align 8, !tbaa !194
  %3 = load ptr, ptr %2, align 8
  %4 = getelementptr inbounds nuw %"class.tinyxml2::XMLPrinter", ptr %3, i32 0, i32 1
  %5 = load i8, ptr %4, align 8, !tbaa !206, !range !35, !noundef !36
  %6 = trunc i8 %5 to i1
  br i1 %6, label %8, label %7

7:                                                ; preds = %1
  br label %13

8:                                                ; preds = %1
  %9 = getelementptr inbounds nuw %"class.tinyxml2::XMLPrinter", ptr %3, i32 0, i32 1
  store i8 0, ptr %9, align 8, !tbaa !206
  %10 = load ptr, ptr %3, align 8, !tbaa !91
  %11 = getelementptr inbounds ptr, ptr %10, i64 15
  %12 = load ptr, ptr %11, align 8
  call void %12(ptr noundef nonnull align 8 dereferenceable(312) %3, i8 noundef signext 62)
  br label %13

13:                                               ; preds = %8, %7
  ret void
}

; Function Attrs: inlinehint mustprogress uwtable
define linkonce_odr hidden void @_ZN8tinyxml210XMLPrinter5WriteEPKc(ptr noundef nonnull align 8 dereferenceable(312) %0, ptr noundef %1) #11 comdat align 2 {
  %3 = alloca ptr, align 8
  %4 = alloca ptr, align 8
  store ptr %0, ptr %3, align 8, !tbaa !194
  store ptr %1, ptr %4, align 8, !tbaa !14
  %5 = load ptr, ptr %3, align 8
  %6 = load ptr, ptr %4, align 8, !tbaa !14
  %7 = load ptr, ptr %4, align 8, !tbaa !14
  %8 = call i64 @strlen(ptr noundef %7) #19
  %9 = load ptr, ptr %5, align 8, !tbaa !91
  %10 = getelementptr inbounds ptr, ptr %9, i64 14
  %11 = load ptr, ptr %10, align 8
  call void %11(ptr noundef nonnull align 8 dereferenceable(312) %5, ptr noundef %6, i64 noundef %8)
  ret void
}

; Function Attrs: mustprogress uwtable
define void @_ZN8tinyxml210XMLPrinter17PrepareForNewNodeEb(ptr noundef nonnull align 8 dereferenceable(312) %0, i1 noundef zeroext %1) #2 align 2 {
  %3 = alloca ptr, align 8
  %4 = alloca i8, align 1
  store ptr %0, ptr %3, align 8, !tbaa !194
  %5 = zext i1 %1 to i8
  store i8 %5, ptr %4, align 1, !tbaa !26
  %6 = load ptr, ptr %3, align 8
  call void @_ZN8tinyxml210XMLPrinter23SealElementIfJustOpenedEv(ptr noundef nonnull align 8 dereferenceable(312) %6)
  %7 = load i8, ptr %4, align 1, !tbaa !26, !range !35, !noundef !36
  %8 = trunc i8 %7 to i1
  br i1 %8, label %9, label %10

9:                                                ; preds = %2
  br label %36

10:                                               ; preds = %2
  %11 = getelementptr inbounds nuw %"class.tinyxml2::XMLPrinter", ptr %6, i32 0, i32 3
  %12 = load i8, ptr %11, align 8, !tbaa !212, !range !35, !noundef !36
  %13 = trunc i8 %12 to i1
  br i1 %13, label %14, label %20

14:                                               ; preds = %10
  %15 = getelementptr inbounds nuw %"class.tinyxml2::XMLPrinter", ptr %6, i32 0, i32 5
  %16 = load i32, ptr %15, align 8, !tbaa !214
  %17 = load ptr, ptr %6, align 8, !tbaa !91
  %18 = getelementptr inbounds ptr, ptr %17, i64 12
  %19 = load ptr, ptr %18, align 8
  call void %19(ptr noundef nonnull align 8 dereferenceable(312) %6, i32 noundef %16)
  br label %34

20:                                               ; preds = %10
  %21 = getelementptr inbounds nuw %"class.tinyxml2::XMLPrinter", ptr %6, i32 0, i32 6
  %22 = load i32, ptr %21, align 4, !tbaa !215
  %23 = icmp slt i32 %22, 0
  br i1 %23, label %24, label %33

24:                                               ; preds = %20
  %25 = load ptr, ptr %6, align 8, !tbaa !91
  %26 = getelementptr inbounds ptr, ptr %25, i64 15
  %27 = load ptr, ptr %26, align 8
  call void %27(ptr noundef nonnull align 8 dereferenceable(312) %6, i8 noundef signext 10)
  %28 = getelementptr inbounds nuw %"class.tinyxml2::XMLPrinter", ptr %6, i32 0, i32 5
  %29 = load i32, ptr %28, align 8, !tbaa !214
  %30 = load ptr, ptr %6, align 8, !tbaa !91
  %31 = getelementptr inbounds ptr, ptr %30, i64 12
  %32 = load ptr, ptr %31, align 8
  call void %32(ptr noundef nonnull align 8 dereferenceable(312) %6, i32 noundef %29)
  br label %33

33:                                               ; preds = %24, %20
  br label %34

34:                                               ; preds = %33, %14
  %35 = getelementptr inbounds nuw %"class.tinyxml2::XMLPrinter", ptr %6, i32 0, i32 3
  store i8 0, ptr %35, align 8, !tbaa !212
  br label %36

36:                                               ; preds = %34, %9
  ret void
}

; Function Attrs: mustprogress uwtable
define void @_ZN8tinyxml210XMLPrinter15PushDeclarationEPKc(ptr noundef nonnull align 8 dereferenceable(312) %0, ptr noundef %1) #2 align 2 {
  %3 = alloca ptr, align 8
  %4 = alloca ptr, align 8
  store ptr %0, ptr %3, align 8, !tbaa !194
  store ptr %1, ptr %4, align 8, !tbaa !14
  %5 = load ptr, ptr %3, align 8
  %6 = getelementptr inbounds nuw %"class.tinyxml2::XMLPrinter", ptr %5, i32 0, i32 8
  %7 = load i8, ptr %6, align 1, !tbaa !217, !range !35, !noundef !36
  %8 = trunc i8 %7 to i1
  call void @_ZN8tinyxml210XMLPrinter17PrepareForNewNodeEb(ptr noundef nonnull align 8 dereferenceable(312) %5, i1 noundef zeroext %8)
  call void @_ZN8tinyxml210XMLPrinter5WriteEPKc(ptr noundef nonnull align 8 dereferenceable(312) %5, ptr noundef @.str.17)
  %9 = load ptr, ptr %4, align 8, !tbaa !14
  call void @_ZN8tinyxml210XMLPrinter5WriteEPKc(ptr noundef nonnull align 8 dereferenceable(312) %5, ptr noundef %9)
  call void @_ZN8tinyxml210XMLPrinter5WriteEPKc(ptr noundef nonnull align 8 dereferenceable(312) %5, ptr noundef @.str.26)
  ret void
}

; Function Attrs: mustprogress uwtable
define noundef ptr @_ZNK8tinyxml27XMLNode5ValueEv(ptr noundef nonnull align 8 dereferenceable(104) %0) #2 align 2 {
  %2 = alloca ptr, align 8
  %3 = alloca ptr, align 8
  store ptr %0, ptr %3, align 8, !tbaa !85
  %4 = load ptr, ptr %3, align 8
  %5 = load ptr, ptr %4, align 8, !tbaa !91
  %6 = getelementptr inbounds ptr, ptr %5, i64 9
  %7 = load ptr, ptr %6, align 8
  %8 = call noundef ptr %7(ptr noundef nonnull align 8 dereferenceable(104) %4)
  %9 = icmp ne ptr %8, null
  br i1 %9, label %10, label %11

10:                                               ; preds = %1
  store ptr null, ptr %2, align 8
  br label %14

11:                                               ; preds = %1
  %12 = getelementptr inbounds nuw %"class.tinyxml2::XMLNode", ptr %4, i32 0, i32 3
  %13 = call noundef ptr @_ZN8tinyxml27StrPair6GetStrEv(ptr noundef nonnull align 8 dereferenceable(24) %12)
  store ptr %13, ptr %2, align 8
  br label %14

14:                                               ; preds = %11, %10
  %15 = load ptr, ptr %2, align 8
  ret ptr %15
}

; Function Attrs: mustprogress uwtable
define noundef zeroext i1 @_ZN8tinyxml210XMLPrinter5VisitERKNS_14XMLDeclarationE(ptr noundef nonnull align 8 dereferenceable(312) %0, ptr noundef nonnull align 8 dereferenceable(104) %1) unnamed_addr #2 align 2 {
  %3 = alloca ptr, align 8
  %4 = alloca ptr, align 8
  store ptr %0, ptr %3, align 8, !tbaa !194
  store ptr %1, ptr %4, align 8, !tbaa !93
  %5 = load ptr, ptr %3, align 8
  %6 = load ptr, ptr %4, align 8, !tbaa !93
  %7 = call noundef ptr @_ZNK8tinyxml27XMLNode5ValueEv(ptr noundef nonnull align 8 dereferenceable(104) %6)
  call void @_ZN8tinyxml210XMLPrinter15PushDeclarationEPKc(ptr noundef nonnull align 8 dereferenceable(312) %5, ptr noundef %7)
  ret i1 true
}