; Function Attrs: mustprogress uwtable
define noundef zeroext i1 @_ZN8tinyxml210XMLPrinter5VisitERKNS_14XMLDeclarationE(ptr noundef nonnull align 8 dereferenceable(312) %0, ptr noundef nonnull align 8 dereferenceable(104) %1) unnamed_addr #4 align 2 {
  %3 = load ptr, ptr %1, align 8, !tbaa !63
  %4 = getelementptr inbounds nuw i8, ptr %3, i64 72
  %5 = load ptr, ptr %4, align 8
  %6 = tail call noundef ptr %5(ptr noundef nonnull align 8 dereferenceable(104) %1)
  %.not.i = icmp eq ptr %6, null
  br i1 %.not.i, label %7, label %_ZNK8tinyxml27XMLNode5ValueEv.exit

7:                                                ; preds = %2
  %8 = getelementptr inbounds nuw i8, ptr %1, i64 24
  %9 = tail call noundef ptr @_ZN8tinyxml27StrPair6GetStrEv(ptr noundef nonnull align 8 dereferenceable(24) %8)
  br label %_ZNK8tinyxml27XMLNode5ValueEv.exit

_ZNK8tinyxml27XMLNode5ValueEv.exit:               ; preds = %2, %7
  %.0.i = phi ptr [ %9, %7 ], [ null, %2 ]
  %10 = getelementptr inbounds nuw i8, ptr %0, i64 137
  %11 = load i8, ptr %10, align 1, !tbaa !167, !range !94, !noundef !95
  %12 = trunc nuw i8 %11 to i1
  %13 = getelementptr inbounds nuw i8, ptr %0, i64 8
  %14 = load i8, ptr %13, align 8, !tbaa !157, !range !94, !noundef !95
  %15 = trunc nuw i8 %14 to i1
  br i1 %15, label %16, label %_ZN8tinyxml210XMLPrinter23SealElementIfJustOpenedEv.exit.i.i

16:                                               ; preds = %_ZNK8tinyxml27XMLNode5ValueEv.exit
  store i8 0, ptr %13, align 8, !tbaa !157
  %17 = load ptr, ptr %0, align 8, !tbaa !63
  %18 = getelementptr inbounds nuw i8, ptr %17, i64 120
  %19 = load ptr, ptr %18, align 8
  tail call void %19(ptr noundef nonnull align 8 dereferenceable(312) %0, i8 noundef signext 62)
  br label %_ZN8tinyxml210XMLPrinter23SealElementIfJustOpenedEv.exit.i.i

_ZN8tinyxml210XMLPrinter23SealElementIfJustOpenedEv.exit.i.i: ; preds = %16, %_ZNK8tinyxml27XMLNode5ValueEv.exit
  br i1 %12, label %_ZN8tinyxml210XMLPrinter15PushDeclarationEPKc.exit, label %20

20:                                               ; preds = %_ZN8tinyxml210XMLPrinter23SealElementIfJustOpenedEv.exit.i.i
  %21 = getelementptr inbounds nuw i8, ptr %0, i64 112
  %22 = load i8, ptr %21, align 8, !tbaa !162, !range !94, !noundef !95
  %23 = trunc nuw i8 %22 to i1
  br i1 %23, label %.sink.split.i.i, label %24

24:                                               ; preds = %20
  %25 = getelementptr inbounds nuw i8, ptr %0, i64 132
  %26 = load i32, ptr %25, align 4, !tbaa !165
  %27 = icmp slt i32 %26, 0
  br i1 %27, label %28, label %37

28:                                               ; preds = %24
  %29 = load ptr, ptr %0, align 8, !tbaa !63
  %30 = getelementptr inbounds nuw i8, ptr %29, i64 120
  %31 = load ptr, ptr %30, align 8
  tail call void %31(ptr noundef nonnull align 8 dereferenceable(312) %0, i8 noundef signext 10)
  br label %.sink.split.i.i

.sink.split.i.i:                                  ; preds = %28, %20
  %32 = getelementptr inbounds nuw i8, ptr %0, i64 128
  %33 = load i32, ptr %32, align 8, !tbaa !164
  %34 = load ptr, ptr %0, align 8, !tbaa !63
  %35 = getelementptr inbounds nuw i8, ptr %34, i64 96
  %36 = load ptr, ptr %35, align 8
  tail call void %36(ptr noundef nonnull align 8 dereferenceable(312) %0, i32 noundef %33)
  br label %37

37:                                               ; preds = %.sink.split.i.i, %24
  store i8 0, ptr %21, align 8, !tbaa !162
  br label %_ZN8tinyxml210XMLPrinter15PushDeclarationEPKc.exit

_ZN8tinyxml210XMLPrinter15PushDeclarationEPKc.exit: ; preds = %_ZN8tinyxml210XMLPrinter23SealElementIfJustOpenedEv.exit.i.i, %37
  %38 = load ptr, ptr %0, align 8, !tbaa !63
  %39 = getelementptr inbounds nuw i8, ptr %38, i64 112
  %40 = load ptr, ptr %39, align 8
  tail call void %40(ptr noundef nonnull align 8 dereferenceable(312) %0, ptr noundef nonnull @.str.17, i64 noundef 2)
  %41 = tail call i64 @strlen(ptr noundef nonnull dereferenceable(1) %.0.i) #33
  %42 = load ptr, ptr %0, align 8, !tbaa !63
  %43 = getelementptr inbounds nuw i8, ptr %42, i64 112
  %44 = load ptr, ptr %43, align 8
  tail call void %44(ptr noundef nonnull align 8 dereferenceable(312) %0, ptr noundef nonnull %.0.i, i64 noundef %41)
  %45 = load ptr, ptr %0, align 8, !tbaa !63
  %46 = getelementptr inbounds nuw i8, ptr %45, i64 112
  %47 = load ptr, ptr %46, align 8
  tail call void %47(ptr noundef nonnull align 8 dereferenceable(312) %0, ptr noundef nonnull @.str.26, i64 noundef 2)
  ret i1 true
}